; Function Attrs: mustprogress uwtable
define void @_ZN9grpc_core5Sleep13ActiveClosure6CancelEv(ptr noundef nonnull align 8 dereferenceable(48) %this) local_unnamed_addr #5 align 2 personality ptr @__gxx_personality_v0 {
entry:
  %refs_.i = getelementptr inbounds i8, ptr %this, i64 24
  %0 = load atomic i32, ptr %refs_.i acquire, align 8
  %cmp.i = icmp eq i32 %0, 1
  br i1 %cmp.i, label %delete.notnull, label %lor.lhs.false

lor.lhs.false:                                    ; preds = %entry
  %1 = tail call align 8 ptr @llvm.threadlocal.address.p0(ptr align 8 @_ZN9grpc_core14promise_detail7ContextIN17grpc_event_engine12experimental11EventEngineEE8current_E)
  %2 = load ptr, ptr %1, align 8
  %cmp.not.i = icmp eq ptr %2, null
  br i1 %cmp.not.i, label %if.then.i, label %_ZN9grpc_core10GetContextIN17grpc_event_engine12experimental11EventEngineEEEPT_v.exit

if.then.i:                                        ; preds = %lor.lhs.false
  tail call void @gpr_assertion_failed(ptr noundef nonnull @.str, i32 noundef 80, ptr noundef nonnull @.str.2) #18
  unreachable

_ZN9grpc_core10GetContextIN17grpc_event_engine12experimental11EventEngineEEEPT_v.exit: ; preds = %lor.lhs.false
  %timer_handle_ = getelementptr inbounds i8, ptr %this, i64 32
  %agg.tmp.sroa.0.0.copyload = load i64, ptr %timer_handle_, align 8
  %agg.tmp.sroa.2.0.timer_handle_.sroa_idx = getelementptr inbounds i8, ptr %this, i64 40
  %agg.tmp.sroa.2.0.copyload = load i64, ptr %agg.tmp.sroa.2.0.timer_handle_.sroa_idx, align 8
  %vtable = load ptr, ptr %2, align 8
  %vfn = getelementptr inbounds i8, ptr %vtable, i64 88
  %3 = load ptr, ptr %vfn, align 8
  %call3 = tail call noundef zeroext i1 %3(ptr noundef nonnull align 8 dereferenceable(24) %2, i64 %agg.tmp.sroa.0.0.copyload, i64 %agg.tmp.sroa.2.0.copyload)
  br i1 %call3, label %delete.notnull, label %lor.lhs.false4

lor.lhs.false4:                                   ; preds = %_ZN9grpc_core10GetContextIN17grpc_event_engine12experimental11EventEngineEEEPT_v.exit
  %4 = atomicrmw sub ptr %refs_.i, i32 1 acq_rel, align 4
  %cmp.i2 = icmp eq i32 %4, 1
  br i1 %cmp.i2, label %delete.notnull, label %if.end

delete.notnull:                                   ; preds = %entry, %_ZN9grpc_core10GetContextIN17grpc_event_engine12experimental11EventEngineEEEPT_v.exit, %lor.lhs.false4
  %waker_.i = getelementptr inbounds i8, ptr %this, i64 8
  %5 = load ptr, ptr %waker_.i, align 8
  %wakeup_mask.i.i.i = getelementptr inbounds i8, ptr %this, i64 16
  %6 = load i16, ptr %wakeup_mask.i.i.i, align 8
  %vtable.i.i.i = load ptr, ptr %5, align 8
  %vfn.i.i.i = getelementptr inbounds i8, ptr %vtable.i.i.i, i64 16
  %7 = load ptr, ptr %vfn.i.i.i, align 8
  invoke void %7(ptr noundef nonnull align 8 dereferenceable(8) %5, i16 noundef zeroext %6)
          to label %_ZN9grpc_core5Sleep13ActiveClosureD2Ev.exit unwind label %terminate.lpad.i.i

terminate.lpad.i.i:                               ; preds = %delete.notnull
  %8 = landingpad { ptr, i32 }
          catch ptr null
  %9 = extractvalue { ptr, i32 } %8, 0
  tail call void @__clang_call_terminate(ptr %9) #19
  unreachable

_ZN9grpc_core5Sleep13ActiveClosureD2Ev.exit:      ; preds = %delete.notnull
  tail call void @_ZdlPv(ptr noundef nonnull %this) #20
  br label %if.end

if.end:                                           ; preds = %_ZN9grpc_core5Sleep13ActiveClosureD2Ev.exit, %lor.lhs.false4
  ret void
}